; Function Attrs: mustprogress nounwind uwtable
define void @_ZN9grpc_core13ResourceQuotaD2Ev(ptr noundef nonnull align 8 captures(none) dereferenceable(40) initializes((0, 8)) %0) unnamed_addr #4 align 2 personality ptr @__gxx_personality_v0 {
  store ptr getelementptr inbounds nuw inrange(-16, 16) (i8, ptr @_ZTVN9grpc_core13ResourceQuotaE, i64 16), ptr %0, align 8, !tbaa !8
  %2 = getelementptr inbounds nuw i8, ptr %0, i64 32
  %3 = load ptr, ptr %2, align 8, !tbaa !33
  %.not.i = icmp eq ptr %3, null
  br i1 %.not.i, label %_ZN9grpc_core13RefCountedPtrINS_11ThreadQuotaEED2Ev.exit, label %4

4:                                                ; preds = %1
  %5 = getelementptr inbounds nuw i8, ptr %3, i64 8
  %6 = atomicrmw sub ptr %5, i64 1 acq_rel, align 8
  %7 = icmp eq i64 %6, 1
  br i1 %7, label %8, label %_ZN9grpc_core13RefCountedPtrINS_11ThreadQuotaEED2Ev.exit, !prof !42

8:                                                ; preds = %4
  %9 = load ptr, ptr %3, align 8, !tbaa !8
  %10 = getelementptr inbounds nuw i8, ptr %9, i64 8
  %11 = load ptr, ptr %10, align 8
  tail call void %11(ptr noundef nonnull align 8 dereferenceable(40) %3) #20
  br label %_ZN9grpc_core13RefCountedPtrINS_11ThreadQuotaEED2Ev.exit

_ZN9grpc_core13RefCountedPtrINS_11ThreadQuotaEED2Ev.exit: ; preds = %1, %4, %8
  %12 = getelementptr inbounds nuw i8, ptr %0, i64 24
  %13 = load ptr, ptr %12, align 8, !tbaa !36
  %.not.i.i = icmp eq ptr %13, null
  br i1 %.not.i.i, label %_ZNSt12__shared_ptrIN9grpc_core11MemoryQuotaELN9__gnu_cxx12_Lock_policyE2EED2Ev.exit, label %14

14:                                               ; preds = %_ZN9grpc_core13RefCountedPtrINS_11ThreadQuotaEED2Ev.exit
  %15 = getelementptr inbounds nuw i8, ptr %13, i64 8
  %16 = load atomic i64, ptr %15 acquire, align 8
  %17 = icmp eq i64 %16, 4294967297
  %18 = trunc i64 %16 to i32
  br i1 %17, label %19, label %27

19:                                               ; preds = %14
  store i32 0, ptr %15, align 8, !tbaa !37
  %20 = getelementptr inbounds nuw i8, ptr %13, i64 12
  store i32 0, ptr %20, align 4, !tbaa !40
  %21 = load ptr, ptr %13, align 8, !tbaa !8
  %22 = getelementptr inbounds nuw i8, ptr %21, i64 16
  %23 = load ptr, ptr %22, align 8
  tail call void %23(ptr noundef nonnull align 8 dereferenceable(16) %13) #20
  %24 = load ptr, ptr %13, align 8, !tbaa !8
  %25 = getelementptr inbounds nuw i8, ptr %24, i64 24
  %26 = load ptr, ptr %25, align 8
  tail call void %26(ptr noundef nonnull align 8 dereferenceable(16) %13) #20
  br label %_ZNSt12__shared_ptrIN9grpc_core11MemoryQuotaELN9__gnu_cxx12_Lock_policyE2EED2Ev.exit

27:                                               ; preds = %14
  %28 = load i8, ptr @__libc_single_threaded, align 1, !tbaa !17
  %.not.i.i.i = icmp eq i8 %28, 0
  br i1 %.not.i.i.i, label %31, label %29

29:                                               ; preds = %27
  %30 = add nsw i32 %18, -1
  store i32 %30, ptr %15, align 4, !tbaa !41
  br label %_ZN9__gnu_cxx27__exchange_and_add_dispatchEPii.exit.i.i.i

31:                                               ; preds = %27
  %32 = atomicrmw volatile add ptr %15, i32 -1 acq_rel, align 4
  br label %_ZN9__gnu_cxx27__exchange_and_add_dispatchEPii.exit.i.i.i

_ZN9__gnu_cxx27__exchange_and_add_dispatchEPii.exit.i.i.i: ; preds = %31, %29
  %.0.i.i.i.i = phi i32 [ %18, %29 ], [ %32, %31 ]
  %33 = icmp eq i32 %.0.i.i.i.i, 1
  br i1 %33, label %34, label %_ZNSt12__shared_ptrIN9grpc_core11MemoryQuotaELN9__gnu_cxx12_Lock_policyE2EED2Ev.exit, !prof !42

34:                                               ; preds = %_ZN9__gnu_cxx27__exchange_and_add_dispatchEPii.exit.i.i.i
  tail call void @_ZNSt16_Sp_counted_baseILN9__gnu_cxx12_Lock_policyE2EE24_M_release_last_use_coldEv(ptr noundef nonnull align 8 dereferenceable(16) %13) #20
  br label %_ZNSt12__shared_ptrIN9grpc_core11MemoryQuotaELN9__gnu_cxx12_Lock_policyE2EED2Ev.exit

_ZNSt12__shared_ptrIN9grpc_core11MemoryQuotaELN9__gnu_cxx12_Lock_policyE2EED2Ev.exit: ; preds = %_ZN9grpc_core13RefCountedPtrINS_11ThreadQuotaEED2Ev.exit, %19, %_ZN9__gnu_cxx27__exchange_and_add_dispatchEPii.exit.i.i.i, %34
  ret void
}